
_main:

;projet.c,34 :: 		void main() {
;projet.c,35 :: 		ADC_init();
	CALL       _ADC_Init+0
;projet.c,36 :: 		TRISB=255;
	MOVLW      255
	MOVWF      TRISB+0
;projet.c,37 :: 		TRISD=0;
	CLRF       TRISD+0
;projet.c,38 :: 		INTCON.GIE = 1;  //(Activer les interruptions)
	BSF        INTCON+0, 7
;projet.c,39 :: 		INTCON.RBIE = 1; //(Activer les interruptions RB4-->RB7)
	BSF        INTCON+0, 3
;projet.c,40 :: 		INTCON.INTE= 1; //(Activer les interruption RB0)
	BSF        INTCON+0, 4
;projet.c,41 :: 		OPTION_REG.INTEDG= 1 ;
	BSF        OPTION_REG+0, 6
;projet.c,42 :: 		desactiver=0;
	CLRF       _desactiver+0
	CLRF       _desactiver+1
;projet.c,43 :: 		pluie=0;
	CLRF       _pluie+0
	CLRF       _pluie+1
;projet.c,44 :: 		activer=0;
	CLRF       _activer+0
	CLRF       _activer+1
;projet.c,45 :: 		PORTD.RD5 = 0;
	BCF        PORTD+0, 5
;projet.c,48 :: 		Lcd_Init();
	CALL       _Lcd_Init+0
;projet.c,49 :: 		Lcd_cmd(_LCD_CLEAR);
	MOVLW      1
	MOVWF      FARG_Lcd_Cmd_out_char+0
	CALL       _Lcd_Cmd+0
;projet.c,51 :: 		Lcd_out(2,3,"SMART GARDEN");
	MOVLW      2
	MOVWF      FARG_Lcd_Out_row+0
	MOVLW      3
	MOVWF      FARG_Lcd_Out_column+0
	MOVLW      ?lstr1_projet+0
	MOVWF      FARG_Lcd_Out_text+0
	CALL       _Lcd_Out+0
;projet.c,52 :: 		Adc_Init();
	CALL       _ADC_Init+0
;projet.c,54 :: 		while(1)
L_main0:
;projet.c,56 :: 		adcValue = ADC_Read(0);
	CLRF       FARG_ADC_Read_channel+0
	CALL       _ADC_Read+0
	CALL       _word2double+0
	MOVF       R0+0, 0
	MOVWF      _adcValue+0
	MOVF       R0+1, 0
	MOVWF      _adcValue+1
	MOVF       R0+2, 0
	MOVWF      _adcValue+2
	MOVF       R0+3, 0
	MOVWF      _adcValue+3
;projet.c,57 :: 		realvalue=adcValue/(10.2);
	MOVLW      51
	MOVWF      R4+0
	MOVLW      51
	MOVWF      R4+1
	MOVLW      35
	MOVWF      R4+2
	MOVLW      130
	MOVWF      R4+3
	CALL       _Div_32x32_FP+0
	MOVF       R0+0, 0
	MOVWF      _realvalue+0
	MOVF       R0+1, 0
	MOVWF      _realvalue+1
	MOVF       R0+2, 0
	MOVWF      _realvalue+2
	MOVF       R0+3, 0
	MOVWF      _realvalue+3
;projet.c,60 :: 		if(activer==1){
	MOVLW      0
	XORWF      _activer+1, 0
	BTFSS      STATUS+0, 2
	GOTO       L__main25
	MOVLW      1
	XORWF      _activer+0, 0
L__main25:
	BTFSS      STATUS+0, 2
	GOTO       L_main2
;projet.c,61 :: 		Lcd_cmd(_LCD_CLEAR);
	MOVLW      1
	MOVWF      FARG_Lcd_Cmd_out_char+0
	CALL       _Lcd_Cmd+0
;projet.c,62 :: 		Lcd_out(2,1,"Arrosage Gazon");
	MOVLW      2
	MOVWF      FARG_Lcd_Out_row+0
	MOVLW      1
	MOVWF      FARG_Lcd_Out_column+0
	MOVLW      ?lstr2_projet+0
	MOVWF      FARG_Lcd_Out_text+0
	CALL       _Lcd_Out+0
;projet.c,63 :: 		activer=0;
	CLRF       _activer+0
	CLRF       _activer+1
;projet.c,64 :: 		}
L_main2:
;projet.c,65 :: 		if(desactiver==1){
	MOVLW      0
	XORWF      _desactiver+1, 0
	BTFSS      STATUS+0, 2
	GOTO       L__main26
	MOVLW      1
	XORWF      _desactiver+0, 0
L__main26:
	BTFSS      STATUS+0, 2
	GOTO       L_main3
;projet.c,66 :: 		Lcd_cmd(_LCD_CLEAR);
	MOVLW      1
	MOVWF      FARG_Lcd_Cmd_out_char+0
	CALL       _Lcd_Cmd+0
;projet.c,67 :: 		Lcd_out(2,1,"Fin Arrosage Gazon");
	MOVLW      2
	MOVWF      FARG_Lcd_Out_row+0
	MOVLW      1
	MOVWF      FARG_Lcd_Out_column+0
	MOVLW      ?lstr3_projet+0
	MOVWF      FARG_Lcd_Out_text+0
	CALL       _Lcd_Out+0
;projet.c,68 :: 		desactiver=0;
	CLRF       _desactiver+0
	CLRF       _desactiver+1
;projet.c,69 :: 		}
L_main3:
;projet.c,70 :: 		if(pluie==1){
	MOVLW      0
	XORWF      _pluie+1, 0
	BTFSS      STATUS+0, 2
	GOTO       L__main27
	MOVLW      1
	XORWF      _pluie+0, 0
L__main27:
	BTFSS      STATUS+0, 2
	GOTO       L_main4
;projet.c,71 :: 		Lcd_cmd(_LCD_CLEAR);
	MOVLW      1
	MOVWF      FARG_Lcd_Cmd_out_char+0
	CALL       _Lcd_Cmd+0
;projet.c,72 :: 		Lcd_out(2,1,"Pluie !!");
	MOVLW      2
	MOVWF      FARG_Lcd_Out_row+0
	MOVLW      1
	MOVWF      FARG_Lcd_Out_column+0
	MOVLW      ?lstr4_projet+0
	MOVWF      FARG_Lcd_Out_text+0
	CALL       _Lcd_Out+0
;projet.c,73 :: 		pluie=0;
	CLRF       _pluie+0
	CLRF       _pluie+1
;projet.c,74 :: 		delay_ms(500);
	MOVLW      13
	MOVWF      R11+0
	MOVLW      175
	MOVWF      R12+0
	MOVLW      182
	MOVWF      R13+0
L_main5:
	DECFSZ     R13+0, 1
	GOTO       L_main5
	DECFSZ     R12+0, 1
	GOTO       L_main5
	DECFSZ     R11+0, 1
	GOTO       L_main5
	NOP
;projet.c,75 :: 		Lcd_cmd(_LCD_CLEAR);
	MOVLW      1
	MOVWF      FARG_Lcd_Cmd_out_char+0
	CALL       _Lcd_Cmd+0
;projet.c,76 :: 		Lcd_out(2,1,"Smart Garden");
	MOVLW      2
	MOVWF      FARG_Lcd_Out_row+0
	MOVLW      1
	MOVWF      FARG_Lcd_Out_column+0
	MOVLW      ?lstr5_projet+0
	MOVWF      FARG_Lcd_Out_text+0
	CALL       _Lcd_Out+0
;projet.c,77 :: 		}
L_main4:
;projet.c,78 :: 		}
	GOTO       L_main0
;projet.c,84 :: 		delay_ms(1000);
L_main9:
	DECFSZ     R13+0, 1
	GOTO       L_main9
	DECFSZ     R12+0, 1
	GOTO       L_main9
	DECFSZ     R11+0, 1
	GOTO       L_main9
	NOP
;projet.c,85 :: 		}else if(realvalue>50){
	GOTO       L_main10
;projet.c,90 :: 		delay_ms(1000);
L_main12:
	DECFSZ     R13+0, 1
	GOTO       L_main12
	DECFSZ     R12+0, 1
	GOTO       L_main12
	DECFSZ     R11+0, 1
	GOTO       L_main12
	NOP
;projet.c,91 :: 		Lcd_cmd(_LCD_CLEAR);
	MOVLW      1
	MOVWF      FARG_Lcd_Cmd_out_char+0
	CALL       _Lcd_Cmd+0
;projet.c,92 :: 		Lcd_out(2,1,"Smart Garden");
	MOVLW      2
	MOVWF      FARG_Lcd_Out_row+0
	MOVLW      1
	MOVWF      FARG_Lcd_Out_column+0
	MOVLW      ?lstr8_projet+0
	MOVWF      FARG_Lcd_Out_text+0
	CALL       _Lcd_Out+0
;projet.c,93 :: 		delay_ms(1000);
	MOVLW      26
	MOVWF      R11+0
	MOVLW      94
	MOVWF      R12+0
	MOVLW      110
	MOVWF      R13+0
L_main13:
	DECFSZ     R13+0, 1
	GOTO       L_main13
	DECFSZ     R12+0, 1
	GOTO       L_main13
	DECFSZ     R11+0, 1
	GOTO       L_main13
	NOP
;projet.c,95 :: 		}
	GOTO       L_main14
;projet.c,103 :: 		delay_ms(1000);
L_main16:
	DECFSZ     R13+0, 1
	GOTO       L_main16
	DECFSZ     R12+0, 1
	GOTO       L_main16
	DECFSZ     R11+0, 1
	GOTO       L_main16
	NOP
;projet.c,104 :: 		}
L_main14:
L_main10:
;projet.c,105 :: 		}
L_end_main:
	GOTO       $+0
; end of _main

_interrupt:
	MOVWF      R15+0
	SWAPF      STATUS+0, 0
	CLRF       STATUS+0
	MOVWF      ___saveSTATUS+0
	MOVF       PCLATH+0, 0
	MOVWF      ___savePCLATH+0
	CLRF       PCLATH+0

;projet.c,112 :: 		void interrupt() {
;projet.c,113 :: 		if(INTCON.INTF==1){//Pluie =1
	BTFSS      INTCON+0, 1
	GOTO       L_interrupt17
;projet.c,114 :: 		if(PORTB.RB0==1){
	BTFSS      PORTB+0, 0
	GOTO       L_interrupt18
;projet.c,115 :: 		PORTD.RD5 = 0;
	BCF        PORTD+0, 5
;projet.c,116 :: 		pluie=1;
	MOVLW      1
	MOVWF      _pluie+0
	MOVLW      0
	MOVWF      _pluie+1
;projet.c,117 :: 		}
L_interrupt18:
;projet.c,118 :: 		INTCON.INTF=0;   //Fin Pluie
	BCF        INTCON+0, 1
;projet.c,119 :: 		}else if(INTCON.RBIF==1){
	GOTO       L_interrupt19
L_interrupt17:
	BTFSS      INTCON+0, 0
	GOTO       L_interrupt20
;projet.c,120 :: 		if(PORTB.RB4==1)
	BTFSS      PORTB+0, 4
	GOTO       L_interrupt21
;projet.c,122 :: 		PORTD.RD5=1; //Arrosage
	BSF        PORTD+0, 5
;projet.c,123 :: 		activer=1;
	MOVLW      1
	MOVWF      _activer+0
	MOVLW      0
	MOVWF      _activer+1
;projet.c,124 :: 		}
L_interrupt21:
;projet.c,125 :: 		if(PORTB.RB4==0)
	BTFSC      PORTB+0, 4
	GOTO       L_interrupt22
;projet.c,127 :: 		PORTD.RD5=0; //Arrosage
	BCF        PORTD+0, 5
;projet.c,128 :: 		desactiver=1;
	MOVLW      1
	MOVWF      _desactiver+0
	MOVLW      0
	MOVWF      _desactiver+1
;projet.c,129 :: 		}
L_interrupt22:
;projet.c,130 :: 		INTCON.RBIF=0;
	BCF        INTCON+0, 0
;projet.c,131 :: 		}
L_interrupt20:
L_interrupt19:
;projet.c,132 :: 		}
L_end_interrupt:
L__interrupt29:
	MOVF       ___savePCLATH+0, 0
	MOVWF      PCLATH+0
	SWAPF      ___saveSTATUS+0, 0
	MOVWF      STATUS+0
	SWAPF      R15+0, 1
	SWAPF      R15+0, 0
	RETFIE
; end of _interrupt
